	.file	"sha256_ni.cpp"
	.text
.Ltext0:
	.cfi_sections	.debug_frame
	.file 1 "sha256_ni.cpp"
	.def	_Z41__static_initialization_and_destruction_0ii;	.scl	3;	.type	32;	.endef
	.seh_proc	_Z41__static_initialization_and_destruction_0ii
_Z41__static_initialization_and_destruction_0ii:
.LVL0:
.LFB2591:
	.loc 1 155 1 view -0
	.cfi_startproc
	.loc 1 155 1 is_stmt 0 view .LVU1
	subq	$40, %rsp
	.seh_stackalloc	40
	.cfi_def_cfa_offset 48
	.seh_endprologue
	.loc 1 155 1 view .LVU2
	cmpl	$1, %ecx
	je	.L3
.LVL1:
.L1:
	.loc 1 155 1 view .LVU3
	addq	$40, %rsp
	.cfi_remember_state
	.cfi_def_cfa_offset 8
	ret
.LVL2:
.L3:
	.cfi_restore_state
	.loc 1 155 1 discriminator 1 view .LVU4
	cmpl	$65535, %edx
	jne	.L1
	.file 2 "D:/utils/mingw64/lib/gcc/x86_64-w64-mingw32/12.2.0/include/c++/iostream"
	.loc 2 74 25 view .LVU5
	leaq	_ZStL8__ioinit(%rip), %rcx
.LVL3:
	.loc 2 74 25 view .LVU6
	call	_ZNSt8ios_base4InitC1Ev
.LVL4:
	.loc 2 74 25 view .LVU7
	leaq	__tcf_0(%rip), %rcx
	call	atexit
.LVL5:
	.loc 1 155 1 view .LVU8
	jmp	.L1
	.cfi_endproc
.LFE2591:
	.seh_endproc
	.def	__tcf_0;	.scl	3;	.type	32;	.endef
	.seh_proc	__tcf_0
__tcf_0:
.LFB2592:
	.loc 2 74 25 is_stmt 1 view -0
	.cfi_startproc
	subq	$40, %rsp
	.seh_stackalloc	40
	.cfi_def_cfa_offset 48
	.seh_endprologue
	.loc 2 74 25 is_stmt 0 view .LVU10
	leaq	_ZStL8__ioinit(%rip), %rcx
	call	_ZNSt8ios_base4InitD1Ev
	nop
.LVL6:
	addq	$40, %rsp
	.cfi_def_cfa_offset 8
	ret
	.cfi_endproc
.LFE2592:
	.seh_endproc
	.section	.text$_ZSt3hexRSt8ios_base,"x"
	.linkonce discard
	.globl	_ZSt3hexRSt8ios_base
	.def	_ZSt3hexRSt8ios_base;	.scl	2;	.type	32;	.endef
	.seh_proc	_ZSt3hexRSt8ios_base
_ZSt3hexRSt8ios_base:
.LVL7:
.LFB1508:
	.file 3 "D:/utils/mingw64/lib/gcc/x86_64-w64-mingw32/12.2.0/include/c++/bits/ios_base.h"
	.loc 3 1064 3 is_stmt 1 view -0
	.cfi_startproc
	.loc 3 1064 3 is_stmt 0 view .LVU12
	.seh_endprologue
	movq	%rcx, %rax
	.loc 3 1065 5 is_stmt 1 view .LVU13
.LVL8:
.LBB139:
.LBI139:
	.loc 3 702 5 view .LVU14
.LBB140:
	.loc 3 704 7 view .LVU15
	.loc 3 705 7 view .LVU16
.LBB141:
.LBI141:
	.loc 3 103 3 view .LVU17
.LBB142:
	.loc 3 104 5 view .LVU18
.LBB143:
.LBI143:
	.loc 3 83 3 view .LVU19
.LBB144:
	.loc 3 84 5 view .LVU20
	.loc 3 84 71 is_stmt 0 view .LVU21
	movl	24(%rcx), %edx
	andl	$-75, %edx
.LVL9:
	.loc 3 84 71 view .LVU22
.LBE144:
.LBE143:
	.loc 3 104 16 view .LVU23
	movl	%edx, 24(%rcx)
.LVL10:
	.loc 3 104 16 view .LVU24
.LBE142:
.LBE141:
	.loc 3 706 7 is_stmt 1 view .LVU25
.LBB145:
.LBI145:
	.loc 3 99 3 view .LVU26
.LBB146:
	.loc 3 100 5 view .LVU27
.LBB147:
.LBI147:
	.loc 3 87 3 view .LVU28
.LBB148:
	.loc 3 88 5 view .LVU29
	.loc 3 88 71 is_stmt 0 view .LVU30
	orl	$8, %edx
.LVL11:
	.loc 3 88 71 view .LVU31
.LBE148:
.LBE147:
	.loc 3 100 16 view .LVU32
	movl	%edx, 24(%rcx)
.LVL12:
	.loc 3 100 16 view .LVU33
.LBE146:
.LBE145:
	.loc 3 707 7 is_stmt 1 view .LVU34
	.loc 3 707 7 is_stmt 0 view .LVU35
.LBE140:
.LBE139:
	.loc 3 1066 5 is_stmt 1 view .LVU36
	.loc 3 1067 3 is_stmt 0 view .LVU37
	ret
	.cfi_endproc
.LFE1508:
	.seh_endproc
	.section	.text$_ZN6SHA2566sha256EPhy,"x"
	.linkonce discard
	.align 2
	.globl	_ZN6SHA2566sha256EPhy
	.def	_ZN6SHA2566sha256EPhy;	.scl	2;	.type	32;	.endef
	.seh_proc	_ZN6SHA2566sha256EPhy
_ZN6SHA2566sha256EPhy:
.LVL13:
.LFB2002:
	.loc 1 65 7 is_stmt 1 view -0
	.cfi_startproc
	.loc 1 65 7 is_stmt 0 view .LVU39
	pushq	%rdi
	.seh_pushreg	%rdi
	.cfi_def_cfa_offset 16
	.cfi_offset 5, -16
	pushq	%rsi
	.seh_pushreg	%rsi
	.cfi_def_cfa_offset 24
	.cfi_offset 4, -24
	subq	$72, %rsp
	.seh_stackalloc	72
	.cfi_def_cfa_offset 96
	.seh_endprologue
	movq	%rcx, %r10
	movq	%rdx, %r9
	.loc 1 67 3 is_stmt 1 view .LVU40
.LVL14:
	.loc 1 68 3 view .LVU41
	.loc 1 67 12 is_stmt 0 view .LVU42
	movl	$0, %ecx
.LVL15:
	.loc 1 68 3 view .LVU43
	jmp	.L7
.LVL16:
.L8:
	.loc 1 70 4 is_stmt 1 view .LVU44
	.loc 1 70 16 is_stmt 0 view .LVU45
	leaq	(%r9,%rcx), %rax
.LVL17:
.LBB149:
.LBI149:
	.loc 1 47 7 is_stmt 1 view .LVU46
.LBB150:
	.loc 1 51 3 view .LVU47
/APP
 # 51 "sha256_ni.cpp" 1
	movq %r10, %rdi
	movq %rax, %rsi
	movq $1, %rdx
	call sha256_ni_transform
	
 # 0 "" 2
.LVL18:
	.loc 1 51 3 is_stmt 0 view .LVU48
/NO_APP
.LBE150:
.LBE149:
	.loc 1 71 4 is_stmt 1 view .LVU49
	.loc 1 71 6 is_stmt 0 view .LVU50
	addq	$64, %rcx
.LVL19:
.L7:
	.loc 1 68 18 is_stmt 1 view .LVU51
	.loc 1 68 14 is_stmt 0 view .LVU52
	movq	%r8, %rdx
	subq	%rcx, %rdx
	.loc 1 68 18 view .LVU53
	cmpq	$63, %rdx
	ja	.L8
	.loc 1 73 3 is_stmt 1 view .LVU54
	.loc 1 73 11 is_stmt 0 view .LVU55
	movq	$0, (%rsp)
	movq	$0, 8(%rsp)
	movq	$0, 16(%rsp)
	movq	$0, 24(%rsp)
	movq	$0, 32(%rsp)
	movq	$0, 40(%rsp)
	movq	$0, 48(%rsp)
	movq	$0, 56(%rsp)
	.loc 1 74 3 is_stmt 1 view .LVU56
.LVL20:
	.loc 1 75 3 view .LVU57
.LBB151:
	.loc 1 75 17 is_stmt 0 view .LVU58
	movl	$0, %eax
	.loc 1 75 3 view .LVU59
	jmp	.L9
.LVL21:
.L10:
	.loc 1 77 4 is_stmt 1 discriminator 3 view .LVU60
	.loc 1 77 22 is_stmt 0 discriminator 3 view .LVU61
	leaq	(%rcx,%rax), %r11
	.loc 1 77 25 discriminator 3 view .LVU62
	movzbl	(%r9,%r11), %r11d
	.loc 1 77 13 discriminator 3 view .LVU63
	movb	%r11b, (%rsp,%rax)
	.loc 1 75 3 is_stmt 1 discriminator 3 view .LVU64
	addq	$1, %rax
.LVL22:
.L9:
	.loc 1 75 26 discriminator 1 view .LVU65
	cmpq	%rdx, %rax
	jb	.L10
.LBE151:
	.loc 1 79 3 view .LVU66
	.loc 1 79 14 is_stmt 0 view .LVU67
	movb	$-128, (%rsp,%rdx)
	.loc 1 80 3 is_stmt 1 view .LVU68
	.loc 1 80 12 is_stmt 0 view .LVU69
	salq	$3, %r8
.LVL23:
	.loc 1 81 3 is_stmt 1 view .LVU70
.LBB152:
	cmpq	$55, %rdx
	jbe	.L19
.LBB153:
	.loc 1 91 4 view .LVU71
.LVL24:
.LBB154:
.LBI154:
	.loc 1 47 7 view .LVU72
.LBB155:
	.loc 1 51 3 view .LVU73
	movq	%rsp, %rax
.LVL25:
	.loc 1 51 3 is_stmt 0 view .LVU74
/APP
 # 51 "sha256_ni.cpp" 1
	movq %r10, %rdi
	movq %rax, %rsi
	movq $1, %rdx
	call sha256_ni_transform
	
 # 0 "" 2
.LVL26:
	.loc 1 51 3 view .LVU75
/NO_APP
.LBE155:
.LBE154:
	.loc 1 92 4 is_stmt 1 view .LVU76
.LBB156:
	.loc 1 92 13 is_stmt 0 view .LVU77
	movl	$0, %eax
	.loc 1 92 4 view .LVU78
	jmp	.L15
.LVL27:
.L13:
	.loc 1 92 4 view .LVU79
.LBE156:
.LBE153:
.LBB161:
.LBB162:
	.loc 1 85 5 is_stmt 1 discriminator 3 view .LVU80
	.loc 1 85 36 is_stmt 0 discriminator 3 view .LVU81
	movl	$7, %ecx
	subl	%eax, %ecx
	.loc 1 85 41 discriminator 3 view .LVU82
	sall	$3, %ecx
	.loc 1 85 29 discriminator 3 view .LVU83
	movq	%r8, %rsi
	shrq	%cl, %rsi
	.loc 1 85 14 discriminator 3 view .LVU84
	leal	56(%rax), %edx
	.loc 1 85 19 discriminator 3 view .LVU85
	movslq	%edx, %rdx
	movb	%sil, (%rsp,%rdx)
	.loc 1 83 4 is_stmt 1 discriminator 3 view .LVU86
	addl	$1, %eax
.LVL28:
.L11:
	.loc 1 83 22 discriminator 1 view .LVU87
	cmpl	$7, %eax
	jle	.L13
.LBE162:
	.loc 1 87 4 view .LVU88
.LVL29:
.LBB163:
.LBI163:
	.loc 1 47 7 view .LVU89
.LBB164:
	.loc 1 51 3 view .LVU90
	movq	%rsp, %rax
.LVL30:
	.loc 1 51 3 is_stmt 0 view .LVU91
/APP
 # 51 "sha256_ni.cpp" 1
	movq %r10, %rdi
	movq %rax, %rsi
	movq $1, %rdx
	call sha256_ni_transform
	
 # 0 "" 2
.LVL31:
/NO_APP
.L6:
	.loc 1 51 3 view .LVU92
.LBE164:
.LBE163:
.LBE161:
.LBE152:
	.loc 1 102 2 view .LVU93
	addq	$72, %rsp
	.cfi_remember_state
	.cfi_def_cfa_offset 24
	popq	%rsi
	.cfi_restore 4
	.cfi_def_cfa_offset 16
	popq	%rdi
	.cfi_restore 5
	.cfi_def_cfa_offset 8
	ret
.LVL32:
.L19:
	.cfi_restore_state
.LBB168:
.LBB166:
.LBB165:
	.loc 1 83 13 view .LVU94
	movl	$0, %eax
.LVL33:
	.loc 1 83 13 view .LVU95
	jmp	.L11
.LVL34:
.L16:
	.loc 1 83 13 view .LVU96
.LBE165:
.LBE166:
.LBB167:
.LBB157:
	.loc 1 94 5 is_stmt 1 discriminator 3 view .LVU97
	.loc 1 94 14 is_stmt 0 discriminator 3 view .LVU98
	movslq	%eax, %rdx
	movb	$0, (%rsp,%rdx)
	.loc 1 92 4 is_stmt 1 discriminator 3 view .LVU99
	addl	$1, %eax
.LVL35:
.L15:
	.loc 1 92 22 discriminator 1 view .LVU100
	cmpl	$55, %eax
	jle	.L16
.LBE157:
.LBB158:
	.loc 1 96 13 is_stmt 0 view .LVU101
	movl	$0, %eax
.LVL36:
	.loc 1 96 13 view .LVU102
	jmp	.L17
.LVL37:
.L18:
	.loc 1 98 5 is_stmt 1 discriminator 3 view .LVU103
	.loc 1 98 36 is_stmt 0 discriminator 3 view .LVU104
	movl	$7, %ecx
	subl	%eax, %ecx
	.loc 1 98 41 discriminator 3 view .LVU105
	sall	$3, %ecx
	.loc 1 98 29 discriminator 3 view .LVU106
	movq	%r8, %rdi
	shrq	%cl, %rdi
	.loc 1 98 14 discriminator 3 view .LVU107
	leal	56(%rax), %edx
	.loc 1 98 19 discriminator 3 view .LVU108
	movslq	%edx, %rdx
	movb	%dil, (%rsp,%rdx)
	.loc 1 96 4 is_stmt 1 discriminator 3 view .LVU109
	addl	$1, %eax
.LVL38:
.L17:
	.loc 1 96 22 discriminator 1 view .LVU110
	cmpl	$7, %eax
	jle	.L18
.LBE158:
	.loc 1 100 4 view .LVU111
.LVL39:
.LBB159:
.LBI159:
	.loc 1 47 7 view .LVU112
.LBB160:
	.loc 1 51 3 view .LVU113
	movq	%rsp, %rax
.LVL40:
	.loc 1 51 3 is_stmt 0 view .LVU114
/APP
 # 51 "sha256_ni.cpp" 1
	movq %r10, %rdi
	movq %rax, %rsi
	movq $1, %rdx
	call sha256_ni_transform
	
 # 0 "" 2
.LVL41:
	.loc 1 51 3 view .LVU115
/NO_APP
.LBE160:
.LBE159:
.LBE167:
.LBE168:
	.loc 1 102 2 view .LVU116
	jmp	.L6
	.cfi_endproc
.LFE2002:
	.seh_endproc
	.section .rdata,"dr"
.LC0:
	.ascii "Time: \0"
.LC2:
	.ascii " s\0"
	.text
	.globl	_Z9benchmarki
	.def	_Z9benchmarki;	.scl	2;	.type	32;	.endef
	.seh_proc	_Z9benchmarki
_Z9benchmarki:
.LVL42:
.LFB2004:
	.loc 1 124 1 is_stmt 1 view -0
	.cfi_startproc
	.loc 1 124 1 is_stmt 0 view .LVU118
	pushq	%rbp
	.seh_pushreg	%rbp
	.cfi_def_cfa_offset 16
	.cfi_offset 6, -16
	pushq	%rdi
	.seh_pushreg	%rdi
	.cfi_def_cfa_offset 24
	.cfi_offset 5, -24
	pushq	%rsi
	.seh_pushreg	%rsi
	.cfi_def_cfa_offset 32
	.cfi_offset 4, -32
	pushq	%rbx
	.seh_pushreg	%rbx
	.cfi_def_cfa_offset 40
	.cfi_offset 3, -40
	subq	$216, %rsp
	.seh_stackalloc	216
	.cfi_def_cfa_offset 256
	.seh_endprologue
	movl	%ecx, %ebx
	.loc 1 125 2 is_stmt 1 view .LVU119
.LVL43:
.LBB169:
.LBI169:
	.loc 1 34 2 view .LVU120
.LBB170:
.LBB171:
	.loc 1 36 3 view .LVU121
	.loc 1 36 14 is_stmt 0 view .LVU122
	movq	$0, 192(%rsp)
	.loc 1 37 3 is_stmt 1 view .LVU123
	.loc 1 37 12 is_stmt 0 view .LVU124
	movl	$1779033703, 96(%rsp)
	.loc 1 38 3 is_stmt 1 view .LVU125
	.loc 1 38 12 is_stmt 0 view .LVU126
	movl	$-1150833019, 100(%rsp)
	.loc 1 39 3 is_stmt 1 view .LVU127
	.loc 1 39 12 is_stmt 0 view .LVU128
	movl	$1013904242, 104(%rsp)
	.loc 1 40 3 is_stmt 1 view .LVU129
	.loc 1 40 12 is_stmt 0 view .LVU130
	movl	$-1521486534, 108(%rsp)
	.loc 1 41 3 is_stmt 1 view .LVU131
	.loc 1 41 12 is_stmt 0 view .LVU132
	movl	$1359893119, 112(%rsp)
	.loc 1 42 3 is_stmt 1 view .LVU133
	.loc 1 42 12 is_stmt 0 view .LVU134
	movl	$-1694144372, 116(%rsp)
	.loc 1 43 3 is_stmt 1 view .LVU135
	.loc 1 43 12 is_stmt 0 view .LVU136
	movl	$528734635, 120(%rsp)
	.loc 1 44 3 is_stmt 1 view .LVU137
	.loc 1 44 12 is_stmt 0 view .LVU138
	movl	$1541459225, 124(%rsp)
.LVL44:
	.loc 1 44 12 view .LVU139
.LBE171:
.LBE170:
.LBE169:
	.loc 1 126 2 is_stmt 1 view .LVU140
	.loc 1 127 2 view .LVU141
.LBB172:
	.loc 1 127 11 is_stmt 0 view .LVU142
	movl	$0, %esi
	.loc 1 127 2 view .LVU143
	jmp	.L22
.LVL45:
.L23:
	.loc 1 128 3 is_stmt 1 discriminator 3 view .LVU144
	.loc 1 128 17 is_stmt 0 discriminator 3 view .LVU145
	call	rand
.LVL46:
	.loc 1 128 20 discriminator 3 view .LVU146
	cltd
	shrl	$24, %edx
	addl	%edx, %eax
	movzbl	%al, %eax
	subl	%edx, %eax
	.loc 1 128 11 discriminator 3 view .LVU147
	movslq	%esi, %rdx
	movb	%al, 32(%rsp,%rdx)
	.loc 1 127 2 is_stmt 1 discriminator 3 view .LVU148
	addl	$1, %esi
.LVL47:
.L22:
	.loc 1 127 20 discriminator 1 view .LVU149
	cmpl	$63, %esi
	jle	.L23
.LBE172:
	.loc 1 129 2 view .LVU150
	.loc 1 129 24 is_stmt 0 view .LVU151
	call	clock
.LVL48:
	.loc 1 129 25 view .LVU152
	movslq	%eax, %rbp
.LVL49:
	.loc 1 130 2 is_stmt 1 view .LVU153
.LBB173:
	.loc 1 130 11 is_stmt 0 view .LVU154
	movl	$0, %eax
	.loc 1 130 2 view .LVU155
	jmp	.L24
.LVL50:
.L25:
	.loc 1 131 3 is_stmt 1 view .LVU156
.LBB174:
.LBI174:
	.loc 1 47 7 view .LVU157
.LBB175:
	.loc 1 51 3 view .LVU158
	leaq	96(%rsp), %rcx
.LVL51:
	.loc 1 51 3 is_stmt 0 view .LVU159
	leaq	32(%rsp), %r8
.LVL52:
	.loc 1 51 3 view .LVU160
/APP
 # 51 "sha256_ni.cpp" 1
	movq %rcx, %rdi
	movq %r8, %rsi
	movq $1, %rdx
	call sha256_ni_transform
	
 # 0 "" 2
.LVL53:
	.loc 1 51 3 view .LVU161
/NO_APP
.LBE175:
.LBE174:
	.loc 1 130 2 is_stmt 1 view .LVU162
	addl	$1, %eax
.LVL54:
.L24:
	.loc 1 130 20 discriminator 1 view .LVU163
	cmpl	%ebx, %eax
	jl	.L25
.LBE173:
	.loc 1 132 2 view .LVU164
.LVL55:
.LBB176:
.LBI176:
	.file 4 "D:/utils/mingw64/lib/gcc/x86_64-w64-mingw32/12.2.0/include/c++/ostream"
	.loc 4 127 7 view .LVU165
.LBB177:
	.loc 4 132 6 is_stmt 0 view .LVU166
	movq	.refptr._ZSt4cout(%rip), %rbx
.LVL56:
	.loc 4 132 6 view .LVU167
	movq	(%rbx), %rax
.LVL57:
	.loc 4 132 6 view .LVU168
	movq	%rbx, %rcx
	addq	-24(%rax), %rcx
	call	_ZSt3hexRSt8ios_base
.LVL58:
	.loc 4 132 6 view .LVU169
.LBE177:
.LBE176:
	.loc 1 133 2 is_stmt 1 view .LVU170
.LBB178:
.LBI178:
	.loc 3 760 5 view .LVU171
.LBB179:
	.loc 3 762 7 view .LVU172
	.loc 3 763 7 view .LVU173
	.loc 3 763 16 is_stmt 0 view .LVU174
	movq	$8, 24(%rbx)
.LVL59:
	.loc 3 764 7 is_stmt 1 view .LVU175
	.loc 3 764 7 is_stmt 0 view .LVU176
.LBE179:
.LBE178:
	.loc 1 134 2 is_stmt 1 view .LVU177
.LBB180:
.LBI180:
	.file 5 "D:/utils/mingw64/lib/gcc/x86_64-w64-mingw32/12.2.0/include/c++/bits/basic_ios.h"
	.loc 5 390 7 view .LVU178
.LBB181:
	.loc 5 392 30 is_stmt 0 view .LVU179
	leaq	8(%rbx), %rcx
	call	_ZNKSt9basic_iosIcSt11char_traitsIcEE4fillEv
.LVL60:
	.loc 5 393 10 view .LVU180
	movb	$48, 232(%rbx)
.LVL61:
	.loc 5 393 10 view .LVU181
.LBE181:
.LBE180:
	.loc 1 135 2 is_stmt 1 view .LVU182
.LBB182:
	.loc 1 135 11 is_stmt 0 view .LVU183
	movl	$0, %ebx
	.loc 1 135 2 view .LVU184
	jmp	.L26
.LVL62:
.L27:
	.loc 1 136 3 is_stmt 1 view .LVU185
	.loc 1 136 25 is_stmt 0 view .LVU186
	movslq	%ebx, %rax
	movl	96(%rsp,%rax,4), %edx
.LVL63:
.LBB183:
.LBI183:
	.loc 4 192 7 is_stmt 1 view .LVU187
.LBB184:
	.loc 4 196 18 is_stmt 0 view .LVU188
	movq	.refptr._ZSt4cout(%rip), %rcx
	call	_ZNSo9_M_insertImEERSoT_
.LVL64:
	.loc 4 196 18 view .LVU189
.LBE184:
.LBE183:
	.loc 1 135 2 is_stmt 1 view .LVU190
	addl	$1, %ebx
.LVL65:
.L26:
	.loc 1 135 20 discriminator 1 view .LVU191
	cmpl	$7, %ebx
	jle	.L27
.LBE182:
	.loc 1 137 2 view .LVU192
.LVL66:
.LBB185:
.LBI185:
	.loc 4 108 7 view .LVU193
.LBB186:
	.loc 4 113 13 is_stmt 0 view .LVU194
	movq	.refptr._ZSt4cout(%rip), %rsi
	movq	%rsi, %rcx
	call	_ZSt4endlIcSt11char_traitsIcEERSt13basic_ostreamIT_T0_ES6_
.LVL67:
	.loc 4 113 13 view .LVU195
.LBE186:
.LBE185:
	.loc 1 138 2 is_stmt 1 view .LVU196
	.loc 1 138 22 is_stmt 0 view .LVU197
	call	clock
.LVL68:
	.loc 1 138 23 view .LVU198
	movslq	%eax, %rbx
.LVL69:
	.loc 1 139 2 is_stmt 1 view .LVU199
	.loc 1 139 10 is_stmt 0 view .LVU200
	leaq	.LC0(%rip), %rdx
	movq	%rsi, %rcx
	call	_ZStlsISt11char_traitsIcEERSt13basic_ostreamIcT_ES5_PKc
.LVL70:
	movq	%rax, %rcx
	.loc 1 139 38 view .LVU201
	subq	%rbp, %rbx
.LVL71:
	.loc 1 139 38 view .LVU202
	js	.L28
	pxor	%xmm1, %xmm1
	cvtsi2sdq	%rbx, %xmm1
.L29:
.LVL72:
.LBB187:
.LBI187:
	.loc 4 220 7 is_stmt 1 view .LVU203
.LBB188:
	.loc 4 221 25 is_stmt 0 view .LVU204
	divsd	.LC1(%rip), %xmm1
.LVL73:
	.loc 4 221 25 view .LVU205
	call	_ZNSo9_M_insertIdEERSoT_
.LVL74:
	.loc 4 221 25 view .LVU206
	movq	%rax, %rcx
.LVL75:
	.loc 4 221 25 view .LVU207
.LBE188:
.LBE187:
	.loc 1 139 48 view .LVU208
	leaq	.LC2(%rip), %rdx
	call	_ZStlsISt11char_traitsIcEERSt13basic_ostreamIcT_ES5_PKc
.LVL76:
	movq	%rax, %rcx
.LVL77:
.LBB189:
.LBI189:
	.loc 4 108 7 is_stmt 1 view .LVU209
.LBB190:
	.loc 4 113 13 is_stmt 0 view .LVU210
	call	_ZSt4endlIcSt11char_traitsIcEERSt13basic_ostreamIT_T0_ES6_
	nop
.LVL78:
	.loc 4 113 13 view .LVU211
.LBE190:
.LBE189:
	.loc 1 140 1 view .LVU212
	addq	$216, %rsp
	.cfi_remember_state
	.cfi_def_cfa_offset 40
	popq	%rbx
	.cfi_restore 3
	.cfi_def_cfa_offset 32
	popq	%rsi
	.cfi_restore 4
	.cfi_def_cfa_offset 24
	popq	%rdi
	.cfi_restore 5
	.cfi_def_cfa_offset 16
	popq	%rbp
	.cfi_restore 6
	.cfi_def_cfa_offset 8
.LVL79:
	.loc 1 140 1 view .LVU213
	ret
.LVL80:
.L28:
	.cfi_restore_state
	.loc 1 139 38 view .LVU214
	movq	%rbx, %rax
	shrq	%rax
	andl	$1, %ebx
	orq	%rbx, %rax
	pxor	%xmm1, %xmm1
	cvtsi2sdq	%rax, %xmm1
	addsd	%xmm1, %xmm1
	jmp	.L29
	.cfi_endproc
.LFE2004:
	.seh_endproc
	.def	__main;	.scl	2;	.type	32;	.endef
	.section .rdata,"dr"
.LC4:
	.ascii "Usage: \0"
.LC5:
	.ascii " n\0"
	.text
	.globl	main
	.def	main;	.scl	2;	.type	32;	.endef
	.seh_proc	main
main:
.LVL81:
.LFB2005:
	.loc 1 143 1 is_stmt 1 view -0
	.cfi_startproc
	.loc 1 143 1 is_stmt 0 view .LVU216
	pushq	%rsi
	.seh_pushreg	%rsi
	.cfi_def_cfa_offset 16
	.cfi_offset 4, -16
	pushq	%rbx
	.seh_pushreg	%rbx
	.cfi_def_cfa_offset 24
	.cfi_offset 3, -24
	subq	$40, %rsp
	.seh_stackalloc	40
	.cfi_def_cfa_offset 64
	.seh_endprologue
	movl	%ecx, %esi
	movq	%rdx, %rbx
	.loc 1 143 1 view .LVU217
	call	__main
.LVL82:
	.loc 1 144 2 is_stmt 1 view .LVU218
.LBB191:
	cmpl	$2, %esi
	je	.L31
	.loc 1 146 3 view .LVU219
	.loc 1 146 29 is_stmt 0 view .LVU220
	leaq	.LC4(%rip), %rdx
	movq	.refptr._ZSt4cout(%rip), %rcx
	call	_ZStlsISt11char_traitsIcEERSt13basic_ostreamIcT_ES5_PKc
.LVL83:
	movq	%rax, %rcx
	movq	(%rbx), %rdx
	call	_ZStlsISt11char_traitsIcEERSt13basic_ostreamIcT_ES5_PKc
.LVL84:
	movq	%rax, %rcx
	leaq	.LC5(%rip), %rdx
	call	_ZStlsISt11char_traitsIcEERSt13basic_ostreamIcT_ES5_PKc
.LVL85:
	movq	%rax, %rcx
.LVL86:
.LBB192:
.LBI192:
	.loc 4 108 7 is_stmt 1 view .LVU221
.LBB193:
	.loc 4 113 13 is_stmt 0 view .LVU222
	call	_ZSt4endlIcSt11char_traitsIcEERSt13basic_ostreamIT_T0_ES6_
.LVL87:
	.loc 4 113 13 view .LVU223
.LBE193:
.LBE192:
	.loc 1 147 3 is_stmt 1 view .LVU224
	.loc 1 147 12 is_stmt 0 view .LVU225
	movl	$1000000, %ecx
	call	_Z9benchmarki
.LVL88:
.L32:
.LBE191:
	.loc 1 154 2 is_stmt 1 view .LVU226
	.loc 1 155 1 is_stmt 0 view .LVU227
	movl	$0, %eax
	addq	$40, %rsp
	.cfi_remember_state
	.cfi_def_cfa_offset 24
	popq	%rbx
	.cfi_restore 3
	.cfi_def_cfa_offset 16
.LVL89:
	.loc 1 155 1 view .LVU228
	popq	%rsi
	.cfi_restore 4
	.cfi_def_cfa_offset 8
.LVL90:
	.loc 1 155 1 view .LVU229
	ret
.LVL91:
.L31:
	.cfi_restore_state
.LBB195:
.LBB194:
	.loc 1 151 3 is_stmt 1 view .LVU230
	.loc 1 151 13 is_stmt 0 view .LVU231
	movq	8(%rbx), %rcx
	call	atoi
.LVL92:
	movl	%eax, %ecx
.LVL93:
	.loc 1 152 3 is_stmt 1 view .LVU232
	.loc 1 152 12 is_stmt 0 view .LVU233
	call	_Z9benchmarki
.LVL94:
	.loc 1 152 12 view .LVU234
	jmp	.L32
.LBE194:
.LBE195:
	.cfi_endproc
.LFE2005:
	.seh_endproc
	.globl	_Z8readfilePc
	.def	_Z8readfilePc;	.scl	2;	.type	32;	.endef
	.seh_proc	_Z8readfilePc
_Z8readfilePc:
.LVL95:
.LFB2003:
	.loc 1 106 1 is_stmt 1 view -0
	.cfi_startproc
	.loc 1 106 1 is_stmt 0 view .LVU236
	pushq	%rsi
	.seh_pushreg	%rsi
	.cfi_def_cfa_offset 16
	.cfi_offset 4, -16
	pushq	%rbx
	.seh_pushreg	%rbx
	.cfi_def_cfa_offset 24
	.cfi_offset 3, -24
	subq	$648, %rsp
	.seh_stackalloc	648
	.cfi_def_cfa_offset 672
	.seh_endprologue
	movq	%rcx, %rdx
	.loc 1 107 2 is_stmt 1 view .LVU237
	.loc 1 107 36 is_stmt 0 view .LVU238
	leaq	160(%rsp), %rbx
	movl	$4, %r8d
	movq	%rbx, %rcx
.LVL96:
.LEHB0:
	.loc 1 107 36 view .LVU239
	call	_ZNSt14basic_ifstreamIcSt11char_traitsIcEEC1EPKcSt13_Ios_Openmode
.LVL97:
.LEHE0:
	.loc 1 108 2 is_stmt 1 view .LVU240
.LBB196:
.LBI196:
	.loc 1 34 2 view .LVU241
.LBB197:
.LBB198:
	.loc 1 36 3 view .LVU242
	.loc 1 36 14 is_stmt 0 view .LVU243
	movq	$0, 144(%rsp)
	.loc 1 37 3 is_stmt 1 view .LVU244
	.loc 1 37 12 is_stmt 0 view .LVU245
	movl	$1779033703, 48(%rsp)
	.loc 1 38 3 is_stmt 1 view .LVU246
	.loc 1 38 12 is_stmt 0 view .LVU247
	movl	$-1150833019, 52(%rsp)
	.loc 1 39 3 is_stmt 1 view .LVU248
	.loc 1 39 12 is_stmt 0 view .LVU249
	movl	$1013904242, 56(%rsp)
	.loc 1 40 3 is_stmt 1 view .LVU250
	.loc 1 40 12 is_stmt 0 view .LVU251
	movl	$-1521486534, 60(%rsp)
	.loc 1 41 3 is_stmt 1 view .LVU252
	.loc 1 41 12 is_stmt 0 view .LVU253
	movl	$1359893119, 64(%rsp)
	.loc 1 42 3 is_stmt 1 view .LVU254
	.loc 1 42 12 is_stmt 0 view .LVU255
	movl	$-1694144372, 68(%rsp)
	.loc 1 43 3 is_stmt 1 view .LVU256
	.loc 1 43 12 is_stmt 0 view .LVU257
	movl	$528734635, 72(%rsp)
	.loc 1 44 3 is_stmt 1 view .LVU258
	.loc 1 44 12 is_stmt 0 view .LVU259
	movl	$1541459225, 76(%rsp)
.LVL98:
	.loc 1 44 12 view .LVU260
.LBE198:
.LBE197:
.LBE196:
	.loc 1 109 2 is_stmt 1 view .LVU261
	.loc 1 109 11 is_stmt 0 view .LVU262
	movl	$2, %r8d
	movl	$0, %edx
	movq	%rbx, %rcx
.LEHB1:
	call	_ZNSi5seekgExSt12_Ios_Seekdir
.LVL99:
	.loc 1 110 2 is_stmt 1 view .LVU263
	.loc 1 110 26 is_stmt 0 view .LVU264
	leaq	32(%rsp), %rcx
	movq	%rbx, %rdx
	call	_ZNSi5tellgEv
.LVL100:
	movq	32(%rsp), %rsi
.LVL101:
.LBB199:
.LBI199:
	.file 6 "D:/utils/mingw64/lib/gcc/x86_64-w64-mingw32/12.2.0/include/c++/bits/postypes.h"
	.loc 6 113 7 is_stmt 1 view .LVU265
	.loc 6 113 7 is_stmt 0 view .LVU266
.LBE199:
	.loc 1 111 2 is_stmt 1 view .LVU267
	.loc 1 111 11 is_stmt 0 view .LVU268
	movq	%rbx, %rcx
	movl	$0, %r8d
	movl	$0, %edx
	call	_ZNSi5seekgExSt12_Ios_Seekdir
.LVL102:
	.loc 1 112 2 is_stmt 1 view .LVU269
	.loc 1 112 33 is_stmt 0 view .LVU270
	movq	%rsi, %rcx
	call	_Znay
.LVL103:
	movq	%rax, %rbx
.LVL104:
	.loc 1 113 2 is_stmt 1 view .LVU271
	.loc 1 113 10 is_stmt 0 view .LVU272
	leaq	160(%rsp), %rcx
	movq	%rsi, %r8
	movq	%rax, %rdx
	call	_ZNSi4readEPcx
.LVL105:
	.loc 1 114 2 is_stmt 1 view .LVU273
	.loc 1 114 15 is_stmt 0 view .LVU274
	leaq	48(%rsp), %rcx
	movq	%rsi, %r8
	movq	%rbx, %rdx
	call	_ZN6SHA2566sha256EPhy
.LVL106:
	.loc 1 115 2 is_stmt 1 view .LVU275
.LBB200:
.LBI200:
	.loc 4 127 7 view .LVU276
.LBB201:
	.loc 4 132 6 is_stmt 0 view .LVU277
	movq	.refptr._ZSt4cout(%rip), %rbx
.LVL107:
	.loc 4 132 6 view .LVU278
	movq	(%rbx), %rax
	movq	%rbx, %rcx
	addq	-24(%rax), %rcx
	call	_ZSt3hexRSt8ios_base
.LVL108:
	.loc 4 132 6 view .LVU279
.LBE201:
.LBE200:
	.loc 1 116 2 is_stmt 1 view .LVU280
.LBB202:
.LBI202:
	.loc 3 760 5 view .LVU281
.LBB203:
	.loc 3 762 7 view .LVU282
	.loc 3 763 7 view .LVU283
	.loc 3 763 16 is_stmt 0 view .LVU284
	movq	$8, 24(%rbx)
.LVL109:
	.loc 3 764 7 is_stmt 1 view .LVU285
	.loc 3 764 7 is_stmt 0 view .LVU286
.LBE203:
.LBE202:
	.loc 1 117 2 is_stmt 1 view .LVU287
.LBB204:
.LBI204:
	.loc 5 390 7 view .LVU288
.LBB205:
	.loc 5 392 30 is_stmt 0 view .LVU289
	leaq	8(%rbx), %rcx
	call	_ZNKSt9basic_iosIcSt11char_traitsIcEE4fillEv
.LVL110:
	.loc 5 393 10 view .LVU290
	movq	.refptr._ZSt4cout(%rip), %rax
	movb	$48, 232(%rax)
.LVL111:
	.loc 5 393 10 view .LVU291
.LBE205:
.LBE204:
	.loc 1 118 2 is_stmt 1 view .LVU292
.LBB206:
	.loc 1 118 11 is_stmt 0 view .LVU293
	movl	$0, %ebx
	.loc 1 118 2 view .LVU294
	jmp	.L34
.LVL112:
.L40:
	.loc 1 118 2 is_stmt 1 discriminator 2 view .LVU295
	addl	$1, %ebx
.LVL113:
.L34:
	.loc 1 118 20 discriminator 1 view .LVU296
	cmpl	$7, %ebx
	jg	.L39
	.loc 1 119 3 view .LVU297
	.loc 1 119 25 is_stmt 0 view .LVU298
	movslq	%ebx, %rax
	movl	48(%rsp,%rax,4), %edx
.LVL114:
.LBB207:
.LBI207:
	.loc 4 192 7 is_stmt 1 view .LVU299
.LBB208:
	.loc 4 196 18 is_stmt 0 view .LVU300
	movq	.refptr._ZSt4cout(%rip), %rcx
	call	_ZNSo9_M_insertImEERSoT_
.LVL115:
	.loc 4 196 50 view .LVU301
	jmp	.L40
.LVL116:
.L39:
	.loc 4 196 50 view .LVU302
.LBE208:
.LBE207:
.LBE206:
	.loc 1 120 2 is_stmt 1 view .LVU303
.LBB209:
.LBI209:
	.loc 4 108 7 view .LVU304
.LBB210:
	.loc 4 113 13 is_stmt 0 view .LVU305
	movq	.refptr._ZSt4cout(%rip), %rcx
	call	_ZSt4endlIcSt11char_traitsIcEERSt13basic_ostreamIT_T0_ES6_
.LVL117:
.LEHE1:
	.loc 4 113 13 view .LVU306
.LBE210:
.LBE209:
	.loc 1 121 1 view .LVU307
	leaq	160(%rsp), %rcx
	call	_ZNSt14basic_ifstreamIcSt11char_traitsIcEED1Ev
	nop
.LVL118:
	addq	$648, %rsp
	.cfi_remember_state
	.cfi_def_cfa_offset 24
	popq	%rbx
	.cfi_restore 3
	.cfi_def_cfa_offset 16
.LVL119:
	.loc 1 121 1 view .LVU308
	popq	%rsi
	.cfi_restore 4
	.cfi_def_cfa_offset 8
.LVL120:
	.loc 1 121 1 view .LVU309
	ret
.LVL121:
.L37:
	.cfi_restore_state
	.loc 1 110 26 view .LVU310
	movq	%rax, %rbx
	.loc 1 121 1 view .LVU311
	leaq	160(%rsp), %rcx
	call	_ZNSt14basic_ifstreamIcSt11char_traitsIcEED1Ev
.LVL122:
	movq	%rbx, %rcx
.LEHB2:
	call	_Unwind_Resume
	nop
.LVL123:
.LEHE2:
	.cfi_endproc
.LFE2003:
	.def	__gxx_personality_seh0;	.scl	2;	.type	32;	.endef
	.seh_handler	__gxx_personality_seh0, @unwind, @except
	.seh_handlerdata
.LLSDA2003:
	.byte	0xff
	.byte	0xff
	.byte	0x1
	.uleb128 .LLSDACSE2003-.LLSDACSB2003
.LLSDACSB2003:
	.uleb128 .LEHB0-.LFB2003
	.uleb128 .LEHE0-.LEHB0
	.uleb128 0
	.uleb128 0
	.uleb128 .LEHB1-.LFB2003
	.uleb128 .LEHE1-.LEHB1
	.uleb128 .L37-.LFB2003
	.uleb128 0
	.uleb128 .LEHB2-.LFB2003
	.uleb128 .LEHE2-.LEHB2
	.uleb128 0
	.uleb128 0
.LLSDACSE2003:
	.text
	.seh_endproc
	.def	_GLOBAL__sub_I__Z8readfilePc;	.scl	3;	.type	32;	.endef
	.seh_proc	_GLOBAL__sub_I__Z8readfilePc
_GLOBAL__sub_I__Z8readfilePc:
.LFB2593:
	.loc 1 155 1 is_stmt 1 view -0
	.cfi_startproc
	subq	$40, %rsp
	.seh_stackalloc	40
	.cfi_def_cfa_offset 48
	.seh_endprologue
	.loc 1 155 1 is_stmt 0 view .LVU313
	movl	$65535, %edx
	movl	$1, %ecx
	call	_Z41__static_initialization_and_destruction_0ii
	nop
.LVL124:
	addq	$40, %rsp
	.cfi_def_cfa_offset 8
	ret
	.cfi_endproc
.LFE2593:
	.seh_endproc
	.section	.ctors,"w"
	.align 8
	.quad	_GLOBAL__sub_I__Z8readfilePc
.lcomm _ZStL8__ioinit,1,1
	.section .rdata,"dr"
	.align 8
.LC1:
	.long	0
	.long	1083129856
	.text
.Letext0:
	.file 7 "D:/utils/mingw64/x86_64-w64-mingw32/include/corecrt.h"
	.file 8 "D:/utils/mingw64/x86_64-w64-mingw32/include/locale.h"
	.file 9 "D:/utils/mingw64/x86_64-w64-mingw32/include/wchar.h"
	.file 10 "D:/utils/mingw64/lib/gcc/x86_64-w64-mingw32/12.2.0/include/c++/cwchar"
	.file 11 "D:/utils/mingw64/lib/gcc/x86_64-w64-mingw32/12.2.0/include/c++/x86_64-w64-mingw32/bits/c++config.h"
	.file 12 "D:/utils/mingw64/lib/gcc/x86_64-w64-mingw32/12.2.0/include/c++/type_traits"
	.file 13 "D:/utils/mingw64/lib/gcc/x86_64-w64-mingw32/12.2.0/include/c++/bits/exception_ptr.h"
	.file 14 "D:/utils/mingw64/lib/gcc/x86_64-w64-mingw32/12.2.0/include/c++/bits/char_traits.h"
	.file 15 "D:/utils/mingw64/lib/gcc/x86_64-w64-mingw32/12.2.0/include/c++/cstdint"
	.file 16 "D:/utils/mingw64/lib/gcc/x86_64-w64-mingw32/12.2.0/include/c++/clocale"
	.file 17 "D:/utils/mingw64/lib/gcc/x86_64-w64-mingw32/12.2.0/include/c++/bits/new_allocator.h"
	.file 18 "D:/utils/mingw64/lib/gcc/x86_64-w64-mingw32/12.2.0/include/c++/bits/allocator.h"
	.file 19 "D:/utils/mingw64/lib/gcc/x86_64-w64-mingw32/12.2.0/include/c++/debug/debug.h"
	.file 20 "D:/utils/mingw64/lib/gcc/x86_64-w64-mingw32/12.2.0/include/c++/string_view"
	.file 21 "D:/utils/mingw64/lib/gcc/x86_64-w64-mingw32/12.2.0/include/c++/cstdlib"
	.file 22 "D:/utils/mingw64/lib/gcc/x86_64-w64-mingw32/12.2.0/include/c++/cstdio"
	.file 23 "D:/utils/mingw64/lib/gcc/x86_64-w64-mingw32/12.2.0/include/c++/bits/alloc_traits.h"
	.file 24 "D:/utils/mingw64/lib/gcc/x86_64-w64-mingw32/12.2.0/include/c++/bits/basic_string.h"
	.file 25 "D:/utils/mingw64/lib/gcc/x86_64-w64-mingw32/12.2.0/include/c++/initializer_list"
	.file 26 "D:/utils/mingw64/lib/gcc/x86_64-w64-mingw32/12.2.0/include/c++/bits/stringfwd.h"
	.file 27 "D:/utils/mingw64/lib/gcc/x86_64-w64-mingw32/12.2.0/include/c++/bits/locale_classes.h"
	.file 28 "D:/utils/mingw64/lib/gcc/x86_64-w64-mingw32/12.2.0/include/c++/cwctype"
	.file 29 "D:/utils/mingw64/lib/gcc/x86_64-w64-mingw32/12.2.0/include/c++/bits/ostream.tcc"
	.file 30 "D:/utils/mingw64/lib/gcc/x86_64-w64-mingw32/12.2.0/include/c++/istream"
	.file 31 "D:/utils/mingw64/lib/gcc/x86_64-w64-mingw32/12.2.0/include/c++/streambuf"
	.file 32 "D:/utils/mingw64/lib/gcc/x86_64-w64-mingw32/12.2.0/include/c++/bits/streambuf.tcc"
	.file 33 "D:/utils/mingw64/lib/gcc/x86_64-w64-mingw32/12.2.0/include/c++/bits/locale_facets.h"
	.file 34 "D:/utils/mingw64/lib/gcc/x86_64-w64-mingw32/12.2.0/include/c++/iosfwd"
	.file 35 "D:/utils/mingw64/lib/gcc/x86_64-w64-mingw32/12.2.0/include/c++/x86_64-w64-mingw32/bits/basic_file.h"
	.file 36 "D:/utils/mingw64/lib/gcc/x86_64-w64-mingw32/12.2.0/include/c++/x86_64-w64-mingw32/bits/c++io.h"
	.file 37 "D:/utils/mingw64/lib/gcc/x86_64-w64-mingw32/12.2.0/include/c++/ctime"
	.file 38 "D:/utils/mingw64/lib/gcc/x86_64-w64-mingw32/12.2.0/include/c++/bits/stl_iterator_base_types.h"
	.file 39 "D:/utils/mingw64/lib/gcc/x86_64-w64-mingw32/12.2.0/include/c++/bits/ostream_insert.h"
	.file 40 "D:/utils/mingw64/lib/gcc/x86_64-w64-mingw32/12.2.0/include/c++/fstream"
	.file 41 "D:/utils/mingw64/lib/gcc/x86_64-w64-mingw32/12.2.0/include/c++/bits/fstream.tcc"
	.file 42 "D:/utils/mingw64/lib/gcc/x86_64-w64-mingw32/12.2.0/include/c++/bits/basic_ios.tcc"
	.file 43 "D:/utils/mingw64/lib/gcc/x86_64-w64-mingw32/12.2.0/include/c++/bits/functexcept.h"
	.file 44 "D:/utils/mingw64/x86_64-w64-mingw32/include/swprintf.inl"
	.file 45 "D:/utils/mingw64/lib/gcc/x86_64-w64-mingw32/12.2.0/include/c++/bits/predefined_ops.h"
	.file 46 "D:/utils/mingw64/lib/gcc/x86_64-w64-mingw32/12.2.0/include/c++/ext/alloc_traits.h"
	.file 47 "D:/utils/mingw64/lib/gcc/x86_64-w64-mingw32/12.2.0/include/c++/bits/stl_iterator.h"
	.file 48 "D:/utils/mingw64/x86_64-w64-mingw32/include/stdint.h"
	.file 49 "D:/utils/mingw64/x86_64-w64-mingw32/include/stdio.h"
	.file 50 "D:/utils/mingw64/x86_64-w64-mingw32/include/time.h"
	.file 51 "D:/utils/mingw64/x86_64-w64-mingw32/include/pthread.h"
	.file 52 "D:/utils/mingw64/lib/gcc/x86_64-w64-mingw32/12.2.0/include/c++/x86_64-w64-mingw32/bits/gthr-default.h"
	.file 53 "D:/utils/mingw64/lib/gcc/x86_64-w64-mingw32/12.2.0/include/c++/x86_64-w64-mingw32/bits/atomic_word.h"
	.file 54 "D:/utils/mingw64/x86_64-w64-mingw32/include/stdlib.h"
	.file 55 "D:/utils/mingw64/x86_64-w64-mingw32/include/process.h"
	.file 56 "D:/utils/mingw64/x86_64-w64-mingw32/include/wctype.h"
	.file 57 "D:/utils/mingw64/lib/gcc/x86_64-w64-mingw32/12.2.0/include/c++/new"
	.file 58 "D:/utils/mingw64/lib/gcc/x86_64-w64-mingw32/12.2.0/include/c++/system_error"
	.section	.rdata$.refptr._ZSt4cout, "dr"
	.globl	.refptr._ZSt4cout
	.linkonce	discard
.refptr._ZSt4cout:
	.quad	_ZSt4cout
